; Function Attrs: nounwind uwtable
define internal ptr @_multiprocessing_SemLock__is_zero(ptr noundef readonly captures(none) %0, ptr readnone captures(none) %1) #0 {
  %3 = alloca i32, align 4
  %4 = getelementptr i8, ptr %0, i64 16
  %.val = load ptr, ptr %4, align 8, !tbaa !9
  call void @llvm.lifetime.start.p0(i64 4, ptr nonnull %3) #11
  %5 = call i32 @sem_getvalue(ptr noundef %.val, ptr noundef nonnull %3) #11
  %6 = icmp slt i32 %5, 0
  br i1 %6, label %7, label %9

7:                                                ; preds = %2
  %8 = call ptr @_PyMp_SetError(ptr noundef null, i32 noundef -1) #11
  br label %_multiprocessing_SemLock__is_zero_impl.exit

9:                                                ; preds = %2
  %10 = load i32, ptr %3, align 4, !tbaa !33
  %11 = icmp eq i32 %10, 0
  %12 = zext i1 %11 to i64
  %13 = call ptr @PyBool_FromLong(i64 noundef %12) #11
  br label %_multiprocessing_SemLock__is_zero_impl.exit

_multiprocessing_SemLock__is_zero_impl.exit:      ; preds = %7, %9
  %.0.i = phi ptr [ %8, %7 ], [ %13, %9 ]
  call void @llvm.lifetime.end.p0(i64 4, ptr nonnull %3) #11
  ret ptr %.0.i
}